(lp1
(I667
F1.6191904047976011
tp2
a(I757
F1.4266842800528401
tp3
a(I847
F1.2750885478158205
tp4
a(I937
F1.152614727854856
tp5
a(I1117
F0.96687555953446735
tp6
a(I1297
F0.83269082498072478
tp7
a(I1477
F0.7312119160460393
tp8
a(I2377
F0.45435422801851072
tp9
a(I4177
F0.2585587742398851
tp10
a.