(lp1
(I66
F7.2727272727272725
tp2
a(I106
F4.5283018867924527
tp3
a(I146
F3.2876712328767121
tp4
a(I186
F2.5806451612903225
tp5
a(I266
F1.8045112781954886
tp6
a(I346
F1.3872832369942196
tp7
a(I426
F1.1267605633802817
tp8
a(I826
F0.58111380145278446
tp9
a(I1626
F0.29520295202952029
tp10
a.