(lp1
(I30
F1.6000000000000001
tp2
a(I34
F1.411764705882353
tp3
a(I38
F1.263157894736842
tp4
a(I42
F1.1428571428571428
tp5
a(I50
F0.95999999999999996
tp6
a(I58
F0.82758620689655171
tp7
a(I66
F0.72727272727272729
tp8
a(I106
F0.45283018867924529
tp9
a(I186
F0.25806451612903225
tp10
a.