((dp1
S'5'
(dp2
S'0.12'
p3
(lp4
(lp5
F1.3333333333333333
aF0
aF0
aF1.3333333333333333
aF1.0666666666666667
aF0.76190476190476186
aF1.5555555555555556
aF1.1851851851851851
aF1.3333333333333333
aF1
aF1.3333333333333333
aF1.7777777777777777
aF1.3333333333333333
aF0.88888888888888884
aF1.1428571428571428
aF1.1428571428571428
aF1.3333333333333333
aF1.3333333333333333
aF1.3333333333333333
aF1.3333333333333333
aass(dp6
S'5'
(dp7
g3
(lp8
(lp9
F0
aF100
aF100
aF0
aF0
acnumpy.core.multiarray
scalar
p10
(cnumpy
dtype
p11
(S'f8'
I0
I1
tRp12
(I3
S'<'
NNNI-1
I-1
I0
tbS'\x00\x00\x00\x00\x00\x00I@'
tRp13
aF0
aF0
aF0
ag10
(g12
S'\xaa\xaa\xaa\xaa\xaa\xaa@@'
tRp14
aF0
aF0
aF0
aF0
aF0
aF0
aF0
aF0
aF0
aF0
aass(dp15
S'5'
(dp16
g3
(lp17
(lp18
F1.7142857142857142
aF3
aF2.8333333333333335
aF2
aF1.5
aF2.5
aF1.2857142857142858
aF1.375
aF2
aF1.6666666666666667
aF1.5
aF1.5
aF1.3999999999999999
aF1.5
aF1.5
aF2
aF2
aF2
aF1.6666666666666667
aF2
aasstp19
.